; ModuleID = 'source-C-CXX/61/2158.cpp'
source_filename = "source-C-CXX/61/2158.cpp"
target datalayout = "e-m:e-p270:32:32-p271:32:32-p272:64:64-i64:64-f80:128-n8:16:32:64-S128"
target triple = "x86_64-pc-linux-gnu"

%"class.std::ios_base::Init" = type { i8 }
%"class.std::basic_istream" = type { i32 (...)**, i64, %"class.std::basic_ios" }
%"class.std::basic_ios" = type { %"class.std::ios_base", %"class.std::basic_ostream"*, i8, i8, %"class.std::basic_streambuf"*, %"class.std::ctype"*, %"class.std::num_put"*, %"class.std::num_get"* }
%"class.std::ios_base" = type { i32 (...)**, i64, i64, i32, i32, i32, %"struct.std::ios_base::_Callback_list"*, %"struct.std::ios_base::_Words", [8 x %"struct.std::ios_base::_Words"], i32, %"struct.std::ios_base::_Words"*, %"class.std::locale" }
%"struct.std::ios_base::_Callback_list" = type { %"struct.std::ios_base::_Callback_list"*, void (i32, %"class.std::ios_base"*, i32)*, i32, i32 }
%"struct.std::ios_base::_Words" = type { i8*, i64 }
%"class.std::locale" = type { %"class.std::locale::_Impl"* }
%"class.std::locale::_Impl" = type { i32, %"class.std::locale::facet"**, i64, %"class.std::locale::facet"**, i8** }
%"class.std::locale::facet" = type <{ i32 (...)**, i32, [4 x i8] }>
%"class.std::basic_ostream" = type { i32 (...)**, %"class.std::basic_ios" }
%"class.std::basic_streambuf" = type { i32 (...)**, i8*, i8*, i8*, i8*, i8*, i8*, %"class.std::locale" }
%"class.std::ctype" = type <{ %"class.std::locale::facet.base", [4 x i8], %struct.__locale_struct*, i8, [7 x i8], i32*, i32*, i16*, i8, [256 x i8], [256 x i8], i8, [6 x i8] }>
%"class.std::locale::facet.base" = type <{ i32 (...)**, i32 }>
%struct.__locale_struct = type { [13 x %struct.__locale_data*], i16*, i32*, i32*, [13 x i8*] }
%struct.__locale_data = type opaque
%"class.std::num_put" = type { %"class.std::locale::facet.base", [4 x i8] }
%"class.std::num_get" = type { %"class.std::locale::facet.base", [4 x i8] }

@_ZStL8__ioinit = internal global %"class.std::ios_base::Init" zeroinitializer, align 1
@__dso_handle = external hidden global i8
@_ZSt3cin = external global %"class.std::basic_istream", align 8
@_ZSt4cout = external global %"class.std::basic_ostream", align 8
@llvm.global_ctors = appending global [1 x { i32, void ()*, i8* }] [{ i32, void ()*, i8* } { i32 65535, void ()* @_GLOBAL__sub_I_2158.cpp, i8* null }]

declare void @_ZNSt8ios_base4InitC1Ev(%"class.std::ios_base::Init"* nonnull align 1 dereferenceable(1)) unnamed_addr #0

; Function Attrs: nounwind
declare void @_ZNSt8ios_base4InitD1Ev(%"class.std::ios_base::Init"* nonnull align 1 dereferenceable(1)) unnamed_addr #1

; Function Attrs: nofree nounwind
declare i32 @__cxa_atexit(void (i8*)*, i8*, i8*) local_unnamed_addr #2

; Function Attrs: mustprogress norecurse sspstrong uwtable
define dso_local i32 @main() local_unnamed_addr #3 {
  %1 = alloca i8, align 1
  %2 = alloca i8, align 1
  %3 = alloca [100 x i8], align 16
  %4 = getelementptr inbounds [100 x i8], [100 x i8]* %3, i64 0, i64 0
  call void @llvm.lifetime.start.p0i8(i64 100, i8* nonnull %4) #8
  %5 = load i8*, i8** bitcast (%"class.std::basic_istream"* @_ZSt3cin to i8**), align 8, !tbaa !5
  %6 = getelementptr i8, i8* %5, i64 -24
  %7 = bitcast i8* %6 to i64*
  %8 = load i64, i64* %7, align 8
  %9 = add nsw i64 %8, 240
  %10 = getelementptr inbounds i8, i8* bitcast (%"class.std::basic_istream"* @_ZSt3cin to i8*), i64 %9
  %11 = bitcast i8* %10 to %"class.std::ctype"**
  %12 = load %"class.std::ctype"*, %"class.std::ctype"** %11, align 8, !tbaa !8
  %13 = icmp eq %"class.std::ctype"* %12, null
  br i1 %13, label %14, label %15

14:                                               ; preds = %0
  tail call void @_ZSt16__throw_bad_castv() #9
  unreachable

15:                                               ; preds = %0
  %16 = getelementptr inbounds %"class.std::ctype", %"class.std::ctype"* %12, i64 0, i32 8
  %17 = load i8, i8* %16, align 8, !tbaa !13
  %18 = icmp eq i8 %17, 0
  br i1 %18, label %22, label %19

19:                                               ; preds = %15
  %20 = getelementptr inbounds %"class.std::ctype", %"class.std::ctype"* %12, i64 0, i32 9, i64 10
  %21 = load i8, i8* %20, align 1, !tbaa !15
  br label %28

22:                                               ; preds = %15
  tail call void @_ZNKSt5ctypeIcE13_M_widen_initEv(%"class.std::ctype"* nonnull align 8 dereferenceable(570) %12)
  %23 = bitcast %"class.std::ctype"* %12 to i8 (%"class.std::ctype"*, i8)***
  %24 = load i8 (%"class.std::ctype"*, i8)**, i8 (%"class.std::ctype"*, i8)*** %23, align 8, !tbaa !5
  %25 = getelementptr inbounds i8 (%"class.std::ctype"*, i8)*, i8 (%"class.std::ctype"*, i8)** %24, i64 6
  %26 = load i8 (%"class.std::ctype"*, i8)*, i8 (%"class.std::ctype"*, i8)** %25, align 8
  %27 = tail call signext i8 %26(%"class.std::ctype"* nonnull align 8 dereferenceable(570) %12, i8 signext 10)
  br label %28

28:                                               ; preds = %19, %22
  %29 = phi i8 [ %21, %19 ], [ %27, %22 ]
  %30 = call nonnull align 8 dereferenceable(16) %"class.std::basic_istream"* @_ZNSi7getlineEPclc(%"class.std::basic_istream"* nonnull align 8 dereferenceable(16) @_ZSt3cin, i8* nonnull %4, i64 100, i8 signext %29)
  %31 = call i64 @strlen(i8* noundef nonnull %4) #10
  %32 = trunc i64 %31 to i32
  %33 = icmp slt i32 %32, 2
  br i1 %33, label %51, label %34

34:                                               ; preds = %28
  %35 = add i64 %31, 4294967295
  %36 = and i64 %35, 4294967295
  br label %37

37:                                               ; preds = %34, %49
  %38 = phi i64 [ 0, %34 ], [ %42, %49 ]
  %39 = getelementptr inbounds [100 x i8], [100 x i8]* %3, i64 0, i64 %38
  %40 = load i8, i8* %39, align 1, !tbaa !15
  %41 = icmp eq i8 %40, 32
  %42 = add nuw nsw i64 %38, 1
  br i1 %41, label %43, label %47

43:                                               ; preds = %37
  %44 = getelementptr inbounds [100 x i8], [100 x i8]* %3, i64 0, i64 %42
  %45 = load i8, i8* %44, align 1, !tbaa !15
  %46 = icmp eq i8 %45, 32
  br i1 %46, label %49, label %47

47:                                               ; preds = %37, %43
  call void @llvm.lifetime.start.p0i8(i64 1, i8* nonnull %2)
  store i8 %40, i8* %2, align 1, !tbaa !15
  %48 = call nonnull align 8 dereferenceable(8) %"class.std::basic_ostream"* @_ZSt16__ostream_insertIcSt11char_traitsIcEERSt13basic_ostreamIT_T0_ES6_PKS3_l(%"class.std::basic_ostream"* nonnull align 8 dereferenceable(8) @_ZSt4cout, i8* nonnull %2, i64 1)
  call void @llvm.lifetime.end.p0i8(i64 1, i8* nonnull %2)
  br label %49

49:                                               ; preds = %43, %47
  %50 = icmp eq i64 %42, %36
  br i1 %50, label %51, label %37, !llvm.loop !16

51:                                               ; preds = %49, %28
  %52 = shl i64 %31, 32
  %53 = add i64 %52, -4294967296
  %54 = ashr exact i64 %53, 32
  %55 = getelementptr inbounds [100 x i8], [100 x i8]* %3, i64 0, i64 %54
  %56 = load i8, i8* %55, align 1, !tbaa !15
  call void @llvm.lifetime.start.p0i8(i64 1, i8* nonnull %1)
  store i8 %56, i8* %1, align 1, !tbaa !15
  %57 = call nonnull align 8 dereferenceable(8) %"class.std::basic_ostream"* @_ZSt16__ostream_insertIcSt11char_traitsIcEERSt13basic_ostreamIT_T0_ES6_PKS3_l(%"class.std::basic_ostream"* nonnull align 8 dereferenceable(8) @_ZSt4cout, i8* nonnull %1, i64 1)
  call void @llvm.lifetime.end.p0i8(i64 1, i8* nonnull %1)
  %58 = bitcast %"class.std::basic_ostream"* %57 to i8**
  %59 = load i8*, i8** %58, align 8, !tbaa !5
  %60 = getelementptr i8, i8* %59, i64 -24
  %61 = bitcast i8* %60 to i64*
  %62 = load i64, i64* %61, align 8
  %63 = bitcast %"class.std::basic_ostream"* %57 to i8*
  %64 = add nsw i64 %62, 240
  %65 = getelementptr inbounds i8, i8* %63, i64 %64
  %66 = bitcast i8* %65 to %"class.std::ctype"**
  %67 = load %"class.std::ctype"*, %"class.std::ctype"** %66, align 8, !tbaa !8
  %68 = icmp eq %"class.std::ctype"* %67, null
  br i1 %68, label %69, label %70

69:                                               ; preds = %51
  call void @_ZSt16__throw_bad_castv() #9
  unreachable

70:                                               ; preds = %51
  %71 = getelementptr inbounds %"class.std::ctype", %"class.std::ctype"* %67, i64 0, i32 8
  %72 = load i8, i8* %71, align 8, !tbaa !13
  %73 = icmp eq i8 %72, 0
  br i1 %73, label %77, label %74

74:                                               ; preds = %70
  %75 = getelementptr inbounds %"class.std::ctype", %"class.std::ctype"* %67, i64 0, i32 9, i64 10
  %76 = load i8, i8* %75, align 1, !tbaa !15
  br label %83

77:                                               ; preds = %70
  call void @_ZNKSt5ctypeIcE13_M_widen_initEv(%"class.std::ctype"* nonnull align 8 dereferenceable(570) %67)
  %78 = bitcast %"class.std::ctype"* %67 to i8 (%"class.std::ctype"*, i8)***
  %79 = load i8 (%"class.std::ctype"*, i8)**, i8 (%"class.std::ctype"*, i8)*** %78, align 8, !tbaa !5
  %80 = getelementptr inbounds i8 (%"class.std::ctype"*, i8)*, i8 (%"class.std::ctype"*, i8)** %79, i64 6
  %81 = load i8 (%"class.std::ctype"*, i8)*, i8 (%"class.std::ctype"*, i8)** %80, align 8
  %82 = call signext i8 %81(%"class.std::ctype"* nonnull align 8 dereferenceable(570) %67, i8 signext 10)
  br label %83

83:                                               ; preds = %74, %77
  %84 = phi i8 [ %76, %74 ], [ %82, %77 ]
  %85 = call nonnull align 8 dereferenceable(8) %"class.std::basic_ostream"* @_ZNSo3putEc(%"class.std::basic_ostream"* nonnull align 8 dereferenceable(8) %57, i8 signext %84)
  %86 = call nonnull align 8 dereferenceable(8) %"class.std::basic_ostream"* @_ZNSo5flushEv(%"class.std::basic_ostream"* nonnull align 8 dereferenceable(8) %85)
  call void @llvm.lifetime.end.p0i8(i64 100, i8* nonnull %4) #8
  ret i32 0
}

; Function Attrs: argmemonly mustprogress nofree nosync nounwind willreturn
declare void @llvm.lifetime.start.p0i8(i64 immarg, i8* nocapture) #4

; Function Attrs: argmemonly mustprogress nofree nounwind readonly willreturn
declare i64 @strlen(i8* nocapture) local_unnamed_addr #5

; Function Attrs: argmemonly mustprogress nofree nosync nounwind willreturn
declare void @llvm.lifetime.end.p0i8(i64 immarg, i8* nocapture) #4

declare nonnull align 8 dereferenceable(16) %"class.std::basic_istream"* @_ZNSi7getlineEPclc(%"class.std::basic_istream"* nonnull align 8 dereferenceable(16), i8*, i64, i8 signext) local_unnamed_addr #0

; Function Attrs: noreturn
declare void @_ZSt16__throw_bad_castv() local_unnamed_addr #6

declare void @_ZNKSt5ctypeIcE13_M_widen_initEv(%"class.std::ctype"* nonnull align 8 dereferenceable(570)) local_unnamed_addr #0

declare nonnull align 8 dereferenceable(8) %"class.std::basic_ostream"* @_ZSt16__ostream_insertIcSt11char_traitsIcEERSt13basic_ostreamIT_T0_ES6_PKS3_l(%"class.std::basic_ostream"* nonnull align 8 dereferenceable(8), i8*, i64) local_unnamed_addr #0

declare nonnull align 8 dereferenceable(8) %"class.std::basic_ostream"* @_ZNSo3putEc(%"class.std::basic_ostream"* nonnull align 8 dereferenceable(8), i8 signext) local_unnamed_addr #0

declare nonnull align 8 dereferenceable(8) %"class.std::basic_ostream"* @_ZNSo5flushEv(%"class.std::basic_ostream"* nonnull align 8 dereferenceable(8)) local_unnamed_addr #0

; Function Attrs: sspstrong uwtable
define internal void @_GLOBAL__sub_I_2158.cpp() #7 section ".text.startup" {
  tail call void @_ZNSt8ios_base4InitC1Ev(%"class.std::ios_base::Init"* nonnull align 1 dereferenceable(1) @_ZStL8__ioinit)
  %1 = tail call i32 @__cxa_atexit(void (i8*)* bitcast (void (%"class.std::ios_base::Init"*)* @_ZNSt8ios_base4InitD1Ev to void (i8*)*), i8* getelementptr inbounds (%"class.std::ios_base::Init", %"class.std::ios_base::Init"* @_ZStL8__ioinit, i64 0, i32 0), i8* nonnull @__dso_handle) #8
  ret void
}


!llvm.module.flags = !{!0, !1, !2, !3}
!llvm.ident = !{!4}

!0 = !{i32 1, !"wchar_size", i32 4}
!1 = !{i32 7, !"PIC Level", i32 2}
!2 = !{i32 7, !"PIE Level", i32 2}
!3 = !{i32 7, !"uwtable", i32 1}
!4 = !{!"clang version 13.0.0"}
!5 = !{!6, !6, i64 0}
!6 = !{!"vtable pointer", !7, i64 0}
!7 = !{!"Simple C++ TBAA"}
!8 = !{!9, !10, i64 240}
!9 = !{!"_ZTSSt9basic_iosIcSt11char_traitsIcEE", !10, i64 216, !11, i64 224, !12, i64 225, !10, i64 232, !10, i64 240, !10, i64 248, !10, i64 256}
!10 = !{!"any pointer", !11, i64 0}
!11 = !{!"omnipotent char", !7, i64 0}
!12 = !{!"bool", !11, i64 0}
!13 = !{!14, !11, i64 56}
!14 = !{!"_ZTSSt5ctypeIcE", !10, i64 16, !12, i64 24, !10, i64 32, !10, i64 40, !10, i64 48, !11, i64 56, !11, i64 57, !11, i64 313, !11, i64 569}
!15 = !{!11, !11, i64 0}
!16 = distinct !{!16, !17}
!17 = !{!"llvm.loop.mustprogress"}
